target datalayout = "e-m:e-p270:32:32-p271:32:32-p272:64:64-i64:64-i128:128-f80:128-n8:16:32:64-S128"
target triple = "x86_64-pc-linux-gnu"

%"class.std::__cxx11::basic_string" = type { %"struct.std::__cxx11::basic_string<char>::_Alloc_hider", i64, %union.anon }
%"struct.std::__cxx11::basic_string<char>::_Alloc_hider" = type { ptr }
%union.anon = type { i64, [8 x i8] }
%"class.pxrInternal_v0_24__pxrReserved__::TfToken" = type { %"class.pxrInternal_v0_24__pxrReserved__::TfPointerAndBits" }
%"class.pxrInternal_v0_24__pxrReserved__::TfPointerAndBits" = type { ptr }
%"struct.pxrInternal_v0_24__pxrReserved__::TfToken::_Rep" = type { %"struct.std::atomic.29", i32, i64, %"class.std::__cxx11::basic_string", ptr }
%"struct.std::atomic.29" = type { %"struct.std::__atomic_base.30" }
%"struct.std::__atomic_base.30" = type { i32 }
%"class.__gnu_cxx::__normal_iterator.49" = type { ptr }
%class.anon = type { ptr }
%"struct.__gnu_cxx::__ops::_Iter_pred" = type { %class.anon }

; Function Attrs: mustprogress nounwind uwtable
define linkonce_odr noundef i64 @_ZN32pxrInternal_v0_24__pxrReserved__16TfPointerAndBitsIKNS_7TfToken4_RepEE9_GetAlignEv() #0 comdat align 2 {
  ret i64 8
}

; Function Attrs: noreturn nounwind uwtable
define linkonce_odr hidden void @__clang_call_terminate(ptr noundef %0) #8 comdat {
  %2 = call ptr @__cxa_begin_catch(ptr %0) #5
  call void @_ZSt9terminatev() #16
  unreachable
}

; Function Attrs: mustprogress nounwind uwtable
define linkonce_odr noundef i64 @_ZNK32pxrInternal_v0_24__pxrReserved__16TfPointerAndBitsIKNS_7TfToken4_RepEE11GetMaxValueEv(ptr noundef nonnull align 8 dereferenceable(8) %0) #0 comdat align 2 {
  %2 = alloca ptr, align 8
  store ptr %0, ptr %2, align 8
  %3 = call noundef i64 @_ZN32pxrInternal_v0_24__pxrReserved__16TfPointerAndBitsIKNS_7TfToken4_RepEE9_GetAlignEv() #5
  %4 = sub i64 %3, 1
  ret i64 %4
}

; Function Attrs: mustprogress nounwind uwtable
define linkonce_odr noundef ptr @_ZNK32pxrInternal_v0_24__pxrReserved__16TfPointerAndBitsIKNS_7TfToken4_RepEE6_AsPtrEm(ptr noundef nonnull align 8 dereferenceable(8) %0, i64 noundef %1) #0 comdat align 2 {
  %3 = alloca ptr, align 8
  %4 = alloca i64, align 8
  store ptr %0, ptr %3, align 8
  store i64 %1, ptr %4, align 8
  %5 = load i64, ptr %4, align 8
  %6 = inttoptr i64 %5 to ptr
  ret ptr %6
}

; Function Attrs: mustprogress nounwind uwtable
define linkonce_odr noundef i64 @_ZNK32pxrInternal_v0_24__pxrReserved__16TfPointerAndBitsIKNS_7TfToken4_RepEE11_GetBitMaskEv(ptr noundef nonnull align 8 dereferenceable(8) %0) #0 comdat align 2 personality ptr @__gxx_personality_v0 {
  %2 = alloca ptr, align 8
  store ptr %0, ptr %2, align 8
  %3 = load ptr, ptr %2, align 8
  %4 = invoke noundef i64 @_ZNK32pxrInternal_v0_24__pxrReserved__16TfPointerAndBitsIKNS_7TfToken4_RepEE11GetMaxValueEv(ptr noundef nonnull align 8 dereferenceable(8) %3)
          to label %5 unwind label %6

5:                                                ; preds = %1
  ret i64 %4

6:                                                ; preds = %1
  %7 = landingpad { ptr, i32 }
          catch ptr null
  %8 = extractvalue { ptr, i32 } %7, 0
  call void @__clang_call_terminate(ptr %8) #16
  unreachable
}

; Function Attrs: mustprogress nounwind uwtable
define linkonce_odr noundef i64 @_ZNK32pxrInternal_v0_24__pxrReserved__16TfPointerAndBitsIKNS_7TfToken4_RepEE6_AsIntEPS3_(ptr noundef nonnull align 8 dereferenceable(8) %0, ptr noundef %1) #0 comdat align 2 {
  %3 = alloca ptr, align 8
  %4 = alloca ptr, align 8
  store ptr %0, ptr %3, align 8
  store ptr %1, ptr %4, align 8
  %5 = load ptr, ptr %4, align 8
  %6 = ptrtoint ptr %5 to i64
  ret i64 %6
}

; Function Attrs: mustprogress nounwind uwtable
define linkonce_odr noundef zeroext i1 @_ZN32pxrInternal_v0_24__pxrReserved__23Tf_StringStartsWithImplEPKcmS1_m(ptr noundef %0, i64 noundef %1, ptr noundef %2, i64 noundef %3) #0 comdat {
  %5 = alloca ptr, align 8
  %6 = alloca i64, align 8
  %7 = alloca ptr, align 8
  %8 = alloca i64, align 8
  store ptr %0, ptr %5, align 8
  store i64 %1, ptr %6, align 8
  store ptr %2, ptr %7, align 8
  store i64 %3, ptr %8, align 8
  %9 = load i64, ptr %6, align 8
  %10 = load i64, ptr %8, align 8
  %11 = icmp uge i64 %9, %10
  br i1 %11, label %12, label %18

12:                                               ; preds = %4
  %13 = load ptr, ptr %5, align 8
  %14 = load ptr, ptr %7, align 8
  %15 = load i64, ptr %8, align 8
  %16 = call i32 @strncmp(ptr noundef %13, ptr noundef %14, i64 noundef %15) #10
  %17 = icmp eq i32 %16, 0
  br label %18

18:                                               ; preds = %12, %4
  %19 = phi i1 [ false, %4 ], [ %17, %12 ]
  ret i1 %19
}

; Function Attrs: mustprogress nounwind uwtable
define linkonce_odr noundef ptr @_ZNK32pxrInternal_v0_24__pxrReserved__16TfPointerAndBitsIKNS_7TfToken4_RepEE7_GetPtrEv(ptr noundef nonnull align 8 dereferenceable(8) %0) #0 comdat align 2 {
  %2 = alloca ptr, align 8
  store ptr %0, ptr %2, align 8
  %3 = load ptr, ptr %2, align 8
  %4 = getelementptr inbounds nuw %"class.pxrInternal_v0_24__pxrReserved__::TfPointerAndBits", ptr %3, i32 0, i32 0
  %5 = load ptr, ptr %4, align 8
  %6 = call noundef i64 @_ZNK32pxrInternal_v0_24__pxrReserved__16TfPointerAndBitsIKNS_7TfToken4_RepEE6_AsIntEPS3_(ptr noundef nonnull align 8 dereferenceable(8) %3, ptr noundef %5) #5
  %7 = call noundef i64 @_ZNK32pxrInternal_v0_24__pxrReserved__16TfPointerAndBitsIKNS_7TfToken4_RepEE11_GetBitMaskEv(ptr noundef nonnull align 8 dereferenceable(8) %3) #5
  %8 = xor i64 %7, -1
  %9 = and i64 %6, %8
  %10 = call noundef ptr @_ZNK32pxrInternal_v0_24__pxrReserved__16TfPointerAndBitsIKNS_7TfToken4_RepEE6_AsPtrEm(ptr noundef nonnull align 8 dereferenceable(8) %3, i64 noundef %9) #5
  ret ptr %10
}

; Function Attrs: mustprogress uwtable
define linkonce_odr noundef zeroext i1 @_ZN32pxrInternal_v0_24__pxrReserved__18TfStringStartsWithERKNSt7__cxx1112basic_stringIcSt11char_traitsIcESaIcEEEPKc(ptr noundef nonnull align 8 dereferenceable(32) %0, ptr noundef %1) #1 comdat {
  %3 = alloca ptr, align 8
  %4 = alloca ptr, align 8
  store ptr %0, ptr %3, align 8
  store ptr %1, ptr %4, align 8
  %5 = load ptr, ptr %3, align 8
  %6 = call noundef ptr @_ZNKSt7__cxx1112basic_stringIcSt11char_traitsIcESaIcEE5c_strEv(ptr noundef nonnull align 8 dereferenceable(32) %5) #5
  %7 = load ptr, ptr %3, align 8
  %8 = call noundef i64 @_ZNKSt7__cxx1112basic_stringIcSt11char_traitsIcESaIcEE6lengthEv(ptr noundef nonnull align 8 dereferenceable(32) %7) #5
  %9 = load ptr, ptr %4, align 8
  %10 = load ptr, ptr %4, align 8
  %11 = call i64 @strlen(ptr noundef %10) #10
  %12 = call noundef zeroext i1 @_ZN32pxrInternal_v0_24__pxrReserved__23Tf_StringStartsWithImplEPKcmS1_m(ptr noundef %6, i64 noundef %8, ptr noundef %9, i64 noundef %11)
  ret i1 %12
}

; Function Attrs: mustprogress nounwind uwtable
define linkonce_odr noundef ptr @_ZNK32pxrInternal_v0_24__pxrReserved__16TfPointerAndBitsIKNS_7TfToken4_RepEE3GetEv(ptr noundef nonnull align 8 dereferenceable(8) %0) #0 comdat align 2 {
  %2 = alloca ptr, align 8
  store ptr %0, ptr %2, align 8
  %3 = load ptr, ptr %2, align 8
  %4 = call noundef ptr @_ZNK32pxrInternal_v0_24__pxrReserved__16TfPointerAndBitsIKNS_7TfToken4_RepEE7_GetPtrEv(ptr noundef nonnull align 8 dereferenceable(8) %3) #5
  ret ptr %4
}

; Function Attrs: mustprogress uwtable
define linkonce_odr noundef zeroext i1 @_ZN32pxrInternal_v0_24__pxrReserved__18TfStringStartsWithERKNSt7__cxx1112basic_stringIcSt11char_traitsIcESaIcEEES7_(ptr noundef nonnull align 8 dereferenceable(32) %0, ptr noundef nonnull align 8 dereferenceable(32) %1) #1 comdat {
  %3 = alloca ptr, align 8
  %4 = alloca ptr, align 8
  store ptr %0, ptr %3, align 8
  store ptr %1, ptr %4, align 8
  %5 = load ptr, ptr %3, align 8
  %6 = load ptr, ptr %4, align 8
  %7 = call noundef ptr @_ZNKSt7__cxx1112basic_stringIcSt11char_traitsIcESaIcEE5c_strEv(ptr noundef nonnull align 8 dereferenceable(32) %6) #5
  %8 = call noundef zeroext i1 @_ZN32pxrInternal_v0_24__pxrReserved__18TfStringStartsWithERKNSt7__cxx1112basic_stringIcSt11char_traitsIcESaIcEEEPKc(ptr noundef nonnull align 8 dereferenceable(32) %5, ptr noundef %7)
  ret i1 %8
}

; Function Attrs: mustprogress uwtable
define linkonce_odr noundef nonnull align 8 dereferenceable(32) ptr @_ZNK32pxrInternal_v0_24__pxrReserved__7TfToken9GetStringB5cxx11Ev(ptr noundef nonnull align 8 dereferenceable(8) %0) #1 comdat align 2 {
  %2 = alloca ptr, align 8
  %3 = alloca ptr, align 8
  store ptr %0, ptr %2, align 8
  %4 = load ptr, ptr %2, align 8
  %5 = getelementptr inbounds nuw %"class.pxrInternal_v0_24__pxrReserved__::TfToken", ptr %4, i32 0, i32 0
  %6 = call noundef ptr @_ZNK32pxrInternal_v0_24__pxrReserved__16TfPointerAndBitsIKNS_7TfToken4_RepEE3GetEv(ptr noundef nonnull align 8 dereferenceable(8) %5) #5
  store ptr %6, ptr %3, align 8
  %7 = load ptr, ptr %3, align 8
  %8 = icmp ne ptr %7, null
  br i1 %8, label %9, label %12

9:                                                ; preds = %1
  %10 = load ptr, ptr %3, align 8
  %11 = getelementptr inbounds nuw %"struct.pxrInternal_v0_24__pxrReserved__::TfToken::_Rep", ptr %10, i32 0, i32 3
  br label %14

12:                                               ; preds = %1
  %13 = call noundef nonnull align 8 dereferenceable(32) ptr @_ZN32pxrInternal_v0_24__pxrReserved__7TfToken15_GetEmptyStringB5cxx11Ev()
  br label %14

14:                                               ; preds = %12, %9
  %15 = phi ptr [ %11, %9 ], [ %13, %12 ]
  ret ptr %15
}

; Function Attrs: mustprogress uwtable
define internal noundef zeroext i1 @"_ZZN32pxrInternal_v0_24__pxrReserved__12_GLOBAL__N_130_GetFilteredNamespacedSettingsERKSt10shared_ptrINS_21HdContainerDataSourceEERKNS_7VtArrayINS_7TfTokenEEEENK3$_0clERKS7_"(ptr noundef nonnull align 8 dereferenceable(8) %0, ptr noundef nonnull align 8 dereferenceable(8) %1) #1 align 2 {
  %3 = alloca i1, align 1
  %4 = alloca ptr, align 8
  %5 = alloca ptr, align 8
  %6 = alloca ptr, align 8
  %7 = alloca ptr, align 8
  %8 = alloca ptr, align 8
  %9 = alloca ptr, align 8
  %10 = alloca ptr, align 8
  store ptr %0, ptr %4, align 8
  store ptr %1, ptr %5, align 8
  %11 = load ptr, ptr %4, align 8
  %12 = load ptr, ptr %5, align 8
  %13 = call noundef nonnull align 8 dereferenceable(32) ptr @_ZNK32pxrInternal_v0_24__pxrReserved__7TfToken9GetStringB5cxx11Ev(ptr noundef nonnull align 8 dereferenceable(8) %12)
  store ptr %13, ptr %6, align 8
  %14 = getelementptr inbounds nuw %class.anon, ptr %11, i32 0, i32 0
  %15 = load ptr, ptr %14, align 8
  store ptr %15, ptr %7, align 8
  %16 = load ptr, ptr %7, align 8
  %17 = call noundef ptr @_ZNK32pxrInternal_v0_24__pxrReserved__7VtArrayINS_7TfTokenEE5beginEv(ptr noundef nonnull align 8 dereferenceable(40) %16)
  store ptr %17, ptr %8, align 8
  %18 = load ptr, ptr %7, align 8
  %19 = call noundef ptr @_ZNK32pxrInternal_v0_24__pxrReserved__7VtArrayINS_7TfTokenEE3endEv(ptr noundef nonnull align 8 dereferenceable(40) %18)
  store ptr %19, ptr %9, align 8
  br label %20

20:                                               ; preds = %32, %2
  %21 = load ptr, ptr %8, align 8
  %22 = load ptr, ptr %9, align 8
  %23 = icmp ne ptr %21, %22
  br i1 %23, label %24, label %35

24:                                               ; preds = %20
  %25 = load ptr, ptr %8, align 8
  store ptr %25, ptr %10, align 8
  %26 = load ptr, ptr %6, align 8
  %27 = load ptr, ptr %10, align 8
  %28 = call noundef nonnull align 8 dereferenceable(32) ptr @_ZNK32pxrInternal_v0_24__pxrReserved__7TfToken9GetStringB5cxx11Ev(ptr noundef nonnull align 8 dereferenceable(8) %27)
  %29 = call noundef zeroext i1 @_ZN32pxrInternal_v0_24__pxrReserved__18TfStringStartsWithERKNSt7__cxx1112basic_stringIcSt11char_traitsIcESaIcEEES7_(ptr noundef nonnull align 8 dereferenceable(32) %26, ptr noundef nonnull align 8 dereferenceable(32) %28)
  br i1 %29, label %30, label %31

30:                                               ; preds = %24
  store i1 false, ptr %3, align 1
  br label %36

31:                                               ; preds = %24
  br label %32

32:                                               ; preds = %31
  %33 = load ptr, ptr %8, align 8
  %34 = getelementptr inbounds %"class.pxrInternal_v0_24__pxrReserved__::TfToken", ptr %33, i32 1
  store ptr %34, ptr %8, align 8
  br label %20

35:                                               ; preds = %20
  store i1 true, ptr %3, align 1
  br label %36

36:                                               ; preds = %35, %30
  %37 = load i1, ptr %3, align 1
  ret i1 %37
}

; Function Attrs: mustprogress nounwind uwtable
define linkonce_odr noundef nonnull align 8 dereferenceable(8) ptr @_ZNK9__gnu_cxx17__normal_iteratorIPN32pxrInternal_v0_24__pxrReserved__7TfTokenESt6vectorIS2_SaIS2_EEEdeEv(ptr noundef nonnull align 8 dereferenceable(8) %0) #0 comdat align 2 {
  %2 = alloca ptr, align 8
  store ptr %0, ptr %2, align 8
  %3 = load ptr, ptr %2, align 8
  %4 = getelementptr inbounds nuw %"class.__gnu_cxx::__normal_iterator.49", ptr %3, i32 0, i32 0
  %5 = load ptr, ptr %4, align 8
  ret ptr %5
}

; Function Attrs: mustprogress uwtable
define internal noundef zeroext i1 @"_ZN9__gnu_cxx5__ops10_Iter_predIZN32pxrInternal_v0_24__pxrReserved__12_GLOBAL__N_130_GetFilteredNamespacedSettingsERKSt10shared_ptrINS2_21HdContainerDataSourceEERKNS2_7VtArrayINS2_7TfTokenEEEE3$_0EclINS_17__normal_iteratorIPSA_St6vectorISA_SaISA_EEEEEEbT_"(ptr noundef nonnull align 8 dereferenceable(8) %0, ptr %1) #1 align 2 {
  %3 = alloca %"class.__gnu_cxx::__normal_iterator.49", align 8
  %4 = alloca ptr, align 8
  %5 = getelementptr inbounds nuw %"class.__gnu_cxx::__normal_iterator.49", ptr %3, i32 0, i32 0
  store ptr %1, ptr %5, align 8
  store ptr %0, ptr %4, align 8
  %6 = load ptr, ptr %4, align 8
  %7 = getelementptr inbounds nuw %"struct.__gnu_cxx::__ops::_Iter_pred", ptr %6, i32 0, i32 0
  %8 = call noundef nonnull align 8 dereferenceable(8) ptr @_ZNK9__gnu_cxx17__normal_iteratorIPN32pxrInternal_v0_24__pxrReserved__7TfTokenESt6vectorIS2_SaIS2_EEEdeEv(ptr noundef nonnull align 8 dereferenceable(8) %3) #5
  %9 = call noundef zeroext i1 @"_ZZN32pxrInternal_v0_24__pxrReserved__12_GLOBAL__N_130_GetFilteredNamespacedSettingsERKSt10shared_ptrINS_21HdContainerDataSourceEERKNS_7VtArrayINS_7TfTokenEEEENK3$_0clERKS7_"(ptr noundef nonnull align 8 dereferenceable(8) %7, ptr noundef nonnull align 8 dereferenceable(8) %8)
  ret i1 %9
}