; Function Attrs: mustprogress uwtable
define internal fastcc noundef zeroext i1 @"_ZN9__gnu_cxx5__ops10_Iter_predIZN32pxrInternal_v0_24__pxrReserved__12_GLOBAL__N_130_GetFilteredNamespacedSettingsERKSt10shared_ptrINS2_21HdContainerDataSourceEERKNS2_7VtArrayINS2_7TfTokenEEEE3$_0EclINS_17__normal_iteratorIPSA_St6vectorISA_SaISA_EEEEEEbT_"(ptr nocapture noundef nonnull readonly align 8 dereferenceable(8) %0, ptr nocapture readonly %1) unnamed_addr #1 align 2 personality ptr @__gxx_personality_v0 {
  %.val = load ptr, ptr %1, align 8
  %3 = ptrtoint ptr %.val to i64
  %4 = and i64 %3, -8
  %.not.i.i = icmp eq i64 %4, 0
  br i1 %.not.i.i, label %8, label %5

5:                                                ; preds = %2
  %6 = inttoptr i64 %4 to ptr
  %7 = getelementptr inbounds nuw i8, ptr %6, i64 16
  br label %_ZNK32pxrInternal_v0_24__pxrReserved__7TfToken9GetStringB5cxx11Ev.exit.i

8:                                                ; preds = %2
  %9 = tail call noundef nonnull align 8 dereferenceable(32) ptr @_ZN32pxrInternal_v0_24__pxrReserved__7TfToken15_GetEmptyStringB5cxx11Ev()
  br label %_ZNK32pxrInternal_v0_24__pxrReserved__7TfToken9GetStringB5cxx11Ev.exit.i

_ZNK32pxrInternal_v0_24__pxrReserved__7TfToken9GetStringB5cxx11Ev.exit.i: ; preds = %8, %5
  %10 = phi ptr [ %7, %5 ], [ %9, %8 ]
  %11 = load ptr, ptr %0, align 8
  %12 = tail call noundef ptr @_ZNK32pxrInternal_v0_24__pxrReserved__7VtArrayINS_7TfTokenEE5beginEv(ptr noundef nonnull align 8 dereferenceable(40) %11)
  %13 = tail call noundef ptr @_ZNK32pxrInternal_v0_24__pxrReserved__7VtArrayINS_7TfTokenEE3endEv(ptr noundef nonnull align 8 dereferenceable(40) %11)
  %.not1.i = icmp eq ptr %12, %13
  br i1 %.not1.i, label %"_ZZN32pxrInternal_v0_24__pxrReserved__12_GLOBAL__N_130_GetFilteredNamespacedSettingsERKSt10shared_ptrINS_21HdContainerDataSourceEERKNS_7VtArrayINS_7TfTokenEEEENK3$_0clERKS7_.exit", label %.lr.ph.i

.lr.ph.i:                                         ; preds = %_ZNK32pxrInternal_v0_24__pxrReserved__7TfToken9GetStringB5cxx11Ev.exit.i, %_ZN32pxrInternal_v0_24__pxrReserved__18TfStringStartsWithERKNSt7__cxx1112basic_stringIcSt11char_traitsIcESaIcEEES7_.exit.thread.i
  %.0112.i = phi ptr [ %29, %_ZN32pxrInternal_v0_24__pxrReserved__18TfStringStartsWithERKNSt7__cxx1112basic_stringIcSt11char_traitsIcESaIcEEES7_.exit.thread.i ], [ %12, %_ZNK32pxrInternal_v0_24__pxrReserved__7TfToken9GetStringB5cxx11Ev.exit.i ]
  %14 = load ptr, ptr %.0112.i, align 8
  %15 = ptrtoint ptr %14 to i64
  %16 = and i64 %15, -8
  %.not.i12.i = icmp eq i64 %16, 0
  br i1 %.not.i12.i, label %20, label %17

17:                                               ; preds = %.lr.ph.i
  %18 = inttoptr i64 %16 to ptr
  %19 = getelementptr inbounds nuw i8, ptr %18, i64 16
  br label %_ZNK32pxrInternal_v0_24__pxrReserved__7TfToken9GetStringB5cxx11Ev.exit13.i

20:                                               ; preds = %.lr.ph.i
  %21 = tail call noundef nonnull align 8 dereferenceable(32) ptr @_ZN32pxrInternal_v0_24__pxrReserved__7TfToken15_GetEmptyStringB5cxx11Ev()
  br label %_ZNK32pxrInternal_v0_24__pxrReserved__7TfToken9GetStringB5cxx11Ev.exit13.i

_ZNK32pxrInternal_v0_24__pxrReserved__7TfToken9GetStringB5cxx11Ev.exit13.i: ; preds = %20, %17
  %22 = phi ptr [ %19, %17 ], [ %21, %20 ]
  %23 = tail call noundef ptr @_ZNKSt7__cxx1112basic_stringIcSt11char_traitsIcESaIcEE5c_strEv(ptr noundef nonnull align 8 dereferenceable(32) %22) #25
  %24 = tail call noundef ptr @_ZNKSt7__cxx1112basic_stringIcSt11char_traitsIcESaIcEE5c_strEv(ptr noundef nonnull align 8 dereferenceable(32) %10) #25
  %25 = tail call noundef i64 @_ZNKSt7__cxx1112basic_stringIcSt11char_traitsIcESaIcEE6lengthEv(ptr noundef nonnull align 8 dereferenceable(32) %10) #25
  %26 = tail call i64 @strlen(ptr noundef nonnull dereferenceable(1) %23) #28
  %.not.i.i.i.i = icmp ult i64 %25, %26
  br i1 %.not.i.i.i.i, label %_ZN32pxrInternal_v0_24__pxrReserved__18TfStringStartsWithERKNSt7__cxx1112basic_stringIcSt11char_traitsIcESaIcEEES7_.exit.thread.i, label %_ZN32pxrInternal_v0_24__pxrReserved__18TfStringStartsWithERKNSt7__cxx1112basic_stringIcSt11char_traitsIcESaIcEEES7_.exit.i

_ZN32pxrInternal_v0_24__pxrReserved__18TfStringStartsWithERKNSt7__cxx1112basic_stringIcSt11char_traitsIcESaIcEEES7_.exit.i: ; preds = %_ZNK32pxrInternal_v0_24__pxrReserved__7TfToken9GetStringB5cxx11Ev.exit13.i
  %27 = tail call i32 @strncmp(ptr noundef %24, ptr noundef %23, i64 noundef %26) #28
  %28 = icmp eq i32 %27, 0
  br i1 %28, label %"_ZZN32pxrInternal_v0_24__pxrReserved__12_GLOBAL__N_130_GetFilteredNamespacedSettingsERKSt10shared_ptrINS_21HdContainerDataSourceEERKNS_7VtArrayINS_7TfTokenEEEENK3$_0clERKS7_.exit", label %_ZN32pxrInternal_v0_24__pxrReserved__18TfStringStartsWithERKNSt7__cxx1112basic_stringIcSt11char_traitsIcESaIcEEES7_.exit.thread.i

_ZN32pxrInternal_v0_24__pxrReserved__18TfStringStartsWithERKNSt7__cxx1112basic_stringIcSt11char_traitsIcESaIcEEES7_.exit.thread.i: ; preds = %_ZN32pxrInternal_v0_24__pxrReserved__18TfStringStartsWithERKNSt7__cxx1112basic_stringIcSt11char_traitsIcESaIcEEES7_.exit.i, %_ZNK32pxrInternal_v0_24__pxrReserved__7TfToken9GetStringB5cxx11Ev.exit13.i
  %29 = getelementptr inbounds i8, ptr %.0112.i, i64 8
  %.not.i = icmp eq ptr %29, %13
  br i1 %.not.i, label %"_ZZN32pxrInternal_v0_24__pxrReserved__12_GLOBAL__N_130_GetFilteredNamespacedSettingsERKSt10shared_ptrINS_21HdContainerDataSourceEERKNS_7VtArrayINS_7TfTokenEEEENK3$_0clERKS7_.exit", label %.lr.ph.i

"_ZZN32pxrInternal_v0_24__pxrReserved__12_GLOBAL__N_130_GetFilteredNamespacedSettingsERKSt10shared_ptrINS_21HdContainerDataSourceEERKNS_7VtArrayINS_7TfTokenEEEENK3$_0clERKS7_.exit": ; preds = %_ZN32pxrInternal_v0_24__pxrReserved__18TfStringStartsWithERKNSt7__cxx1112basic_stringIcSt11char_traitsIcESaIcEEES7_.exit.i, %_ZN32pxrInternal_v0_24__pxrReserved__18TfStringStartsWithERKNSt7__cxx1112basic_stringIcSt11char_traitsIcESaIcEEES7_.exit.thread.i, %_ZNK32pxrInternal_v0_24__pxrReserved__7TfToken9GetStringB5cxx11Ev.exit.i
  %.not.lcssa.i = phi i1 [ true, %_ZNK32pxrInternal_v0_24__pxrReserved__7TfToken9GetStringB5cxx11Ev.exit.i ], [ false, %_ZN32pxrInternal_v0_24__pxrReserved__18TfStringStartsWithERKNSt7__cxx1112basic_stringIcSt11char_traitsIcESaIcEEES7_.exit.i ], [ true, %_ZN32pxrInternal_v0_24__pxrReserved__18TfStringStartsWithERKNSt7__cxx1112basic_stringIcSt11char_traitsIcESaIcEEES7_.exit.thread.i ]
  ret i1 %.not.lcssa.i
}